target datalayout = "e-m:e-p270:32:32-p271:32:32-p272:64:64-i64:64-i128:128-f80:128-n8:16:32:64-S128"
target triple = "x86_64-pc-linux-gnu"

%struct.JSValue = type { %union.JSValueUnion, i64 }
%union.JSValueUnion = type { double }

; Function Attrs: nounwind uwtable
define internal i32 @JS_IsException(i64 %0, i64 %1) #0 {
  %3 = alloca %struct.JSValue, align 8
  %4 = getelementptr inbounds { i64, i64 }, ptr %3, i32 0, i32 0
  store i64 %0, ptr %4, align 8
  %5 = getelementptr inbounds { i64, i64 }, ptr %3, i32 0, i32 1
  store i64 %1, ptr %5, align 8
  %6 = getelementptr inbounds %struct.JSValue, ptr %3, i32 0, i32 1
  %7 = load i64, ptr %6, align 8
  %8 = trunc i64 %7 to i32
  %9 = icmp eq i32 %8, 6
  %10 = xor i1 %9, true
  %11 = xor i1 %10, true
  %12 = zext i1 %11 to i32
  %13 = sext i32 %12 to i64
  %14 = trunc i64 %13 to i32
  ret i32 %14
}

; Function Attrs: nounwind uwtable
define internal { i64, i64 } @js_os_pipe(ptr noundef %0, i64 %1, i64 %2, i32 noundef %3, ptr noundef %4) #0 {
  %6 = alloca %struct.JSValue, align 8
  %7 = alloca ptr, align 8
  %8 = alloca i32, align 4
  %9 = alloca %struct.JSValue, align 8
  %10 = alloca ptr, align 8
  %11 = alloca i32, align 4
  %12 = alloca %struct.JSValue, align 8
  %13 = alloca %struct.JSValue, align 8
  %14 = alloca ptr, align 8
  %15 = alloca i32, align 4
  %16 = alloca ptr, align 8
  %17 = alloca [2 x i32], align 4
  %18 = alloca i32, align 4
  %19 = alloca %struct.JSValue, align 8
  %20 = alloca %struct.JSValue, align 8
  %21 = alloca %struct.JSValue, align 8
  %22 = alloca %struct.JSValue, align 8
  %23 = getelementptr inbounds { i64, i64 }, ptr %13, i32 0, i32 0
  store i64 %1, ptr %23, align 8
  %24 = getelementptr inbounds { i64, i64 }, ptr %13, i32 0, i32 1
  store i64 %2, ptr %24, align 8
  store ptr %0, ptr %14, align 8
  store i32 %3, ptr %15, align 4
  store ptr %4, ptr %16, align 8
  %25 = getelementptr inbounds [2 x i32], ptr %17, i64 0, i64 0
  %26 = call i32 @pipe(ptr noundef %25) #12
  store i32 %26, ptr %18, align 4
  %27 = load i32, ptr %18, align 4
  %28 = icmp slt i32 %27, 0
  br i1 %28, label %29, label %32

29:                                               ; preds = %5
  %30 = getelementptr inbounds %struct.JSValue, ptr %12, i32 0, i32 0
  store i32 0, ptr %30, align 8
  %31 = getelementptr inbounds %struct.JSValue, ptr %12, i32 0, i32 1
  store i64 2, ptr %31, align 8
  br label %87

32:                                               ; preds = %5
  %33 = load ptr, ptr %14, align 8
  %34 = call { i64, i64 } @JS_NewArray(ptr noundef %33)
  %35 = getelementptr inbounds { i64, i64 }, ptr %20, i32 0, i32 0
  %36 = extractvalue { i64, i64 } %34, 0
  store i64 %36, ptr %35, align 8
  %37 = getelementptr inbounds { i64, i64 }, ptr %20, i32 0, i32 1
  %38 = extractvalue { i64, i64 } %34, 1
  store i64 %38, ptr %37, align 8
  call void @llvm.memcpy.p0.p0.i64(ptr align 8 %19, ptr align 8 %20, i64 16, i1 false)
  %39 = getelementptr inbounds { i64, i64 }, ptr %19, i32 0, i32 0
  %40 = load i64, ptr %39, align 8
  %41 = getelementptr inbounds { i64, i64 }, ptr %19, i32 0, i32 1
  %42 = load i64, ptr %41, align 8
  %43 = call i32 @JS_IsException(i64 %40, i64 %42)
  %44 = icmp ne i32 %43, 0
  br i1 %44, label %45, label %46

45:                                               ; preds = %32
  call void @llvm.memcpy.p0.p0.i64(ptr align 8 %12, ptr align 8 %19, i64 16, i1 false)
  br label %87

46:                                               ; preds = %32
  %47 = load ptr, ptr %14, align 8
  %48 = load ptr, ptr %14, align 8
  %49 = getelementptr [2 x i32], ptr %17, i64 0, i64 0
  %50 = load i32, ptr %49, align 4
  store ptr %48, ptr %7, align 8
  store i32 %50, ptr %8, align 4
  %51 = load i32, ptr %8, align 4
  store i32 %51, ptr %6, align 8
  %52 = getelementptr inbounds %struct.JSValue, ptr %6, i32 0, i32 1
  store i64 0, ptr %52, align 8
  %53 = load { i64, i64 }, ptr %6, align 8
  %54 = getelementptr inbounds { i64, i64 }, ptr %21, i32 0, i32 0
  %55 = extractvalue { i64, i64 } %53, 0
  store i64 %55, ptr %54, align 8
  %56 = getelementptr inbounds { i64, i64 }, ptr %21, i32 0, i32 1
  %57 = extractvalue { i64, i64 } %53, 1
  store i64 %57, ptr %56, align 8
  %58 = getelementptr inbounds { i64, i64 }, ptr %19, i32 0, i32 0
  %59 = load i64, ptr %58, align 8
  %60 = getelementptr inbounds { i64, i64 }, ptr %19, i32 0, i32 1
  %61 = load i64, ptr %60, align 8
  %62 = getelementptr inbounds { i64, i64 }, ptr %21, i32 0, i32 0
  %63 = load i64, ptr %62, align 8
  %64 = getelementptr inbounds { i64, i64 }, ptr %21, i32 0, i32 1
  %65 = load i64, ptr %64, align 8
  %66 = call i32 @JS_DefinePropertyValueUint32(ptr noundef %47, i64 %59, i64 %61, i32 noundef 0, i64 %63, i64 %65, i32 noundef 7)
  %67 = load ptr, ptr %14, align 8
  %68 = load ptr, ptr %14, align 8
  %69 = getelementptr [2 x i32], ptr %17, i64 0, i64 1
  %70 = load i32, ptr %69, align 4
  store ptr %68, ptr %10, align 8
  store i32 %70, ptr %11, align 4
  %71 = load i32, ptr %11, align 4
  store i32 %71, ptr %9, align 8
  %72 = getelementptr inbounds %struct.JSValue, ptr %9, i32 0, i32 1
  store i64 0, ptr %72, align 8
  %73 = load { i64, i64 }, ptr %9, align 8
  %74 = getelementptr inbounds { i64, i64 }, ptr %22, i32 0, i32 0
  %75 = extractvalue { i64, i64 } %73, 0
  store i64 %75, ptr %74, align 8
  %76 = getelementptr inbounds { i64, i64 }, ptr %22, i32 0, i32 1
  %77 = extractvalue { i64, i64 } %73, 1
  store i64 %77, ptr %76, align 8
  %78 = getelementptr inbounds { i64, i64 }, ptr %19, i32 0, i32 0
  %79 = load i64, ptr %78, align 8
  %80 = getelementptr inbounds { i64, i64 }, ptr %19, i32 0, i32 1
  %81 = load i64, ptr %80, align 8
  %82 = getelementptr inbounds { i64, i64 }, ptr %22, i32 0, i32 0
  %83 = load i64, ptr %82, align 8
  %84 = getelementptr inbounds { i64, i64 }, ptr %22, i32 0, i32 1
  %85 = load i64, ptr %84, align 8
  %86 = call i32 @JS_DefinePropertyValueUint32(ptr noundef %67, i64 %79, i64 %81, i32 noundef 1, i64 %83, i64 %85, i32 noundef 7)
  call void @llvm.memcpy.p0.p0.i64(ptr align 8 %12, ptr align 8 %19, i64 16, i1 false)
  br label %87

87:                                               ; preds = %46, %45, %29
  %88 = load { i64, i64 }, ptr %12, align 8
  ret { i64, i64 } %88
}