; Function Attrs: nounwind uwtable
define internal { i64, i64 } @js_os_pipe(ptr noundef %0, i64 %1, i64 %2, i32 %3, ptr nocapture readnone %4) #0 {
  %6 = alloca [2 x i32], align 4
  %7 = call i32 @pipe(ptr noundef nonnull %6) #29
  %8 = icmp slt i32 %7, 0
  br i1 %8, label %21, label %9

9:                                                ; preds = %5
  %10 = call { i64, i64 } @JS_NewArray(ptr noundef %0) #29
  %11 = extractvalue { i64, i64 } %10, 0
  %12 = extractvalue { i64, i64 } %10, 1
  %13 = and i64 %12, 4294967295
  %.not = icmp eq i64 %13, 6
  br i1 %.not, label %14, label %15

14:                                               ; preds = %9
  %.sroa.4.0.extract.shift = and i64 %11, -4294967296
  br label %21

15:                                               ; preds = %9
  %16 = load i32, ptr %6, align 4
  %.sroa.032.0.insert.ext = zext i32 %16 to i64
  %17 = call i32 @JS_DefinePropertyValueUint32(ptr noundef %0, i64 %11, i64 %12, i32 noundef 0, i64 %.sroa.032.0.insert.ext, i64 0, i32 noundef 7) #29
  %18 = getelementptr inbounds i8, ptr %6, i64 4
  %19 = load i32, ptr %18, align 4
  %.sroa.027.0.insert.ext = zext i32 %19 to i64
  %20 = call i32 @JS_DefinePropertyValueUint32(ptr noundef %0, i64 %11, i64 %12, i32 noundef 1, i64 %.sroa.027.0.insert.ext, i64 0, i32 noundef 7) #29
  %.sroa.4.0.extract.shift20 = and i64 %11, -4294967296
  br label %21

21:                                               ; preds = %5, %15, %14
  %.sroa.018.0 = phi i64 [ %11, %14 ], [ %11, %15 ], [ 0, %5 ]
  %.sroa.4.sroa.0.0 = phi i64 [ %.sroa.4.0.extract.shift, %14 ], [ %.sroa.4.0.extract.shift20, %15 ], [ 0, %5 ]
  %.sroa.4.sroa.3.0 = phi i64 [ %12, %14 ], [ %12, %15 ], [ 2, %5 ]
  %.sroa.018.0.insert.ext = and i64 %.sroa.018.0, 4294967295
  %.sroa.018.0.insert.insert = or disjoint i64 %.sroa.4.sroa.0.0, %.sroa.018.0.insert.ext
  %.fca.0.insert = insertvalue { i64, i64 } poison, i64 %.sroa.018.0.insert.insert, 0
  %.fca.1.insert = insertvalue { i64, i64 } %.fca.0.insert, i64 %.sroa.4.sroa.3.0, 1
  ret { i64, i64 } %.fca.1.insert
}